; Function Attrs: mustprogress uwtable
define void @_ZN6icu_7525ContractionsAndExpansions10addStringsEiiPNS_10UnicodeSetE(ptr noundef nonnull align 8 dereferenceable(764) %this, i32 noundef %start, i32 noundef %end, ptr noundef %set) local_unnamed_addr #0 align 2 personality ptr @__gxx_personality_v0 {
entry:
  %s = alloca %"class.icu_75::UnicodeString", align 8
  %cmp = icmp eq ptr %set, null
  br i1 %cmp, label %return, label %if.end

if.end:                                           ; preds = %entry
  %unreversedPrefix = getelementptr inbounds i8, ptr %this, i64 440
  call void @_ZN6icu_7513UnicodeStringC1ERKS0_(ptr noundef nonnull align 8 dereferenceable(64) %s, ptr noundef nonnull align 8 dereferenceable(64) %unreversedPrefix)
  %suffix = getelementptr inbounds i8, ptr %this, i64 504
  %fUnion.i.i = getelementptr inbounds i8, ptr %this, i64 448
  %fLength.i = getelementptr inbounds i8, ptr %this, i64 452
  %fUnion.i.i4 = getelementptr inbounds i8, ptr %s, i64 8
  %fLength.i.i7 = getelementptr inbounds i8, ptr %s, i64 12
  %smax = call i32 @llvm.smax.i32(i32 %end, i32 %start)
  br label %do.body

do.body:                                          ; preds = %do.cond, %if.end
  %start.addr.0 = phi i32 [ %start, %if.end ], [ %inc, %do.cond ]
  %call = invoke noundef nonnull align 8 dereferenceable(64) ptr @_ZN6icu_7513UnicodeString6appendEi(ptr noundef nonnull align 8 dereferenceable(64) %s, i32 noundef %start.addr.0)
          to label %invoke.cont unwind label %lpad

invoke.cont:                                      ; preds = %do.body
  %0 = load ptr, ptr %suffix, align 8
  %cmp2.not = icmp eq ptr %0, null
  br i1 %cmp2.not, label %if.end7, label %if.then3

if.then3:                                         ; preds = %invoke.cont
  %fUnion.i.i.i = getelementptr inbounds i8, ptr %0, i64 8
  %1 = load i16, ptr %fUnion.i.i.i, align 8
  %cmp.i.i.i = icmp slt i16 %1, 0
  %2 = ashr i16 %1, 5
  %shr.i.i.i = sext i16 %2 to i32
  %fLength.i.i = getelementptr inbounds i8, ptr %0, i64 12
  %3 = load i32, ptr %fLength.i.i, align 4
  %cond.i.i = select i1 %cmp.i.i.i, i32 %3, i32 %shr.i.i.i
  %call2.i3 = invoke noundef nonnull align 8 dereferenceable(64) ptr @_ZN6icu_7513UnicodeString8doAppendERKS0_ii(ptr noundef nonnull align 8 dereferenceable(64) %s, ptr noundef nonnull align 8 dereferenceable(64) %0, i32 noundef 0, i32 noundef %cond.i.i)
          to label %if.end7 unwind label %lpad

lpad:                                             ; preds = %if.then.i, %if.then3, %if.end7, %do.body
  %4 = landingpad { ptr, i32 }
          cleanup
  call void @_ZN6icu_7513UnicodeStringD1Ev(ptr noundef nonnull align 8 dereferenceable(64) %s) #9
  resume { ptr, i32 } %4

if.end7:                                          ; preds = %if.then3, %invoke.cont
  %call9 = invoke noundef nonnull align 8 dereferenceable(200) ptr @_ZN6icu_7510UnicodeSet3addERKNS_13UnicodeStringE(ptr noundef nonnull align 8 dereferenceable(200) %set, ptr noundef nonnull align 8 dereferenceable(64) %s)
          to label %invoke.cont11 unwind label %lpad

invoke.cont11:                                    ; preds = %if.end7
  %5 = load i16, ptr %fUnion.i.i, align 8
  %cmp.i.i = icmp slt i16 %5, 0
  %6 = ashr i16 %5, 5
  %shr.i.i = sext i16 %6 to i32
  %7 = load i32, ptr %fLength.i, align 4
  %cond.i = select i1 %cmp.i.i, i32 %7, i32 %shr.i.i
  %8 = load i16, ptr %fUnion.i.i4, align 8
  %conv2.i5.i = and i16 %8, 1
  %tobool.i = icmp ne i16 %conv2.i5.i, 0
  %cmp.i = icmp eq i32 %cond.i, 0
  %or.cond.i = and i1 %cmp.i, %tobool.i
  br i1 %or.cond.i, label %if.then.i, label %if.else.i

if.then.i:                                        ; preds = %invoke.cont11
  invoke void @_ZN6icu_7513UnicodeString7unBogusEv(ptr noundef nonnull align 8 dereferenceable(64) %s)
          to label %do.cond unwind label %lpad

if.else.i:                                        ; preds = %invoke.cont11
  %cmp.i.i.i5 = icmp slt i16 %8, 0
  %9 = ashr i16 %8, 5
  %shr.i.i.i6 = sext i16 %9 to i32
  %10 = load i32, ptr %fLength.i.i7, align 4
  %cond.i.i8 = select i1 %cmp.i.i.i5, i32 %10, i32 %shr.i.i.i6
  %cmp3.i = icmp ugt i32 %cond.i.i8, %cond.i
  br i1 %cmp3.i, label %if.then4.i, label %do.cond

if.then4.i:                                       ; preds = %if.else.i
  %cmp.i.i9 = icmp slt i32 %cond.i, 1024
  br i1 %cmp.i.i9, label %if.then.i.i, label %if.else.i.i

if.then.i.i:                                      ; preds = %if.then4.i
  %11 = and i16 %8, 31
  %len.tr.i.i.i = trunc i32 %cond.i to i16
  %12 = shl i16 %len.tr.i.i.i, 5
  %conv2.i.i.i = or disjoint i16 %12, %11
  store i16 %conv2.i.i.i, ptr %fUnion.i.i4, align 8
  br label %do.cond

if.else.i.i:                                      ; preds = %if.then4.i
  %or.i.i = or i16 %8, -32
  store i16 %or.i.i, ptr %fUnion.i.i4, align 8
  store i32 %cond.i, ptr %fLength.i.i7, align 4
  br label %do.cond

do.cond:                                          ; preds = %if.else.i.i, %if.then.i.i, %if.else.i, %if.then.i
  %inc = add i32 %start.addr.0, 1
  %exitcond.not = icmp eq i32 %start.addr.0, %smax
  br i1 %exitcond.not, label %do.end, label %do.body, !llvm.loop !19

do.end:                                           ; preds = %do.cond
  call void @_ZN6icu_7513UnicodeStringD1Ev(ptr noundef nonnull align 8 dereferenceable(64) %s) #9
  br label %return

return:                                           ; preds = %entry, %do.end
  ret void
}